target datalayout = "e-m:e-p270:32:32-p271:32:32-p272:64:64-i64:64-i128:128-f80:128-n8:16:32:64-S128"
target triple = "x86_64-pc-linux-gnu"

%"struct.rocksdb::WriteThread::AdaptationContext" = type <{ ptr, %"struct.std::atomic.41", [4 x i8] }>
%"struct.std::atomic.41" = type { %"struct.std::__atomic_base.42" }
%"struct.std::__atomic_base.42" = type { i32 }
%"class.rocksdb::WriteThread" = type { ptr, i64, i64, i8, i8, i64, %"struct.std::atomic", %"struct.std::atomic", i64, %"struct.rocksdb::WriteThread::Writer", %"class.rocksdb::port::Mutex", %"class.rocksdb::port::CondVar", i64, i64 }
%"struct.std::atomic" = type { %"struct.std::__atomic_base" }
%"struct.std::__atomic_base" = type { ptr }
%"struct.rocksdb::WriteThread::Writer" = type <{ ptr, i8, i8, i8, i8, i32, i8, [7 x i8], i64, i64, ptr, ptr, i64, i64, ptr, ptr, i8, %"struct.std::atomic.3", [6 x i8], ptr, i64, %"class.rocksdb::Status", %"class.rocksdb::Status", %"struct.rocksdb::aligned_storage<std::mutex>::type", %"struct.rocksdb::aligned_storage<std::condition_variable>::type", ptr, ptr, i8, [7 x i8] }>
%"struct.std::atomic.3" = type { %"struct.std::__atomic_base.4" }
%"struct.std::__atomic_base.4" = type { i8 }
%"class.rocksdb::Status" = type { i8, i8, i8, i8, i8, i8, %"class.std::unique_ptr" }
%"class.std::unique_ptr" = type { %"struct.std::__uniq_ptr_data" }
%"struct.std::__uniq_ptr_data" = type { %"class.std::__uniq_ptr_impl" }
%"class.std::__uniq_ptr_impl" = type { %"class.std::tuple" }
%"class.std::tuple" = type { %"struct.std::_Tuple_impl" }
%"struct.std::_Tuple_impl" = type { %"struct.std::_Head_base.6" }
%"struct.std::_Head_base.6" = type { ptr }
%"struct.rocksdb::aligned_storage<std::mutex>::type" = type { [40 x i8] }
%"struct.rocksdb::aligned_storage<std::condition_variable>::type" = type { [48 x i8] }
%"class.rocksdb::port::Mutex" = type { %union.pthread_mutex_t }
%union.pthread_mutex_t = type { %struct.__pthread_mutex_s }
%struct.__pthread_mutex_s = type { i32, i32, i32, i32, i32, i16, i16, %struct.__pthread_internal_list }
%struct.__pthread_internal_list = type { ptr, ptr }
%"class.rocksdb::port::CondVar" = type { %union.pthread_cond_t, ptr }
%union.pthread_cond_t = type { %struct.__pthread_cond_s }
%struct.__pthread_cond_s = type { %union.__atomic_wide_counter, %union.__atomic_wide_counter, [2 x i32], [2 x i32], i32, i32, [2 x i32] }
%union.__atomic_wide_counter = type { i64 }
%"class.rocksdb::InstrumentedMutex" = type <{ %"class.rocksdb::port::Mutex", ptr, ptr, i32, [4 x i8] }>

@_ZN7rocksdbL6eu_ctxE = internal global %"struct.rocksdb::WriteThread::AdaptationContext" zeroinitializer, align 8

; Function Attrs: mustprogress uwtable
define linkonce_odr void @_ZN7rocksdb17InstrumentedMutex6UnlockEv(ptr noundef nonnull align 8 dereferenceable(60) %0) #5 comdat align 2 {
  %2 = alloca ptr, align 8
  store ptr %0, ptr %2, align 8, !tbaa !291
  %3 = load ptr, ptr %2, align 8
  %4 = getelementptr inbounds nuw %"class.rocksdb::InstrumentedMutex", ptr %3, i32 0, i32 0
  call void @_ZN7rocksdb4port5Mutex6UnlockEv(ptr noundef nonnull align 8 dereferenceable(40) %4)
  ret void
}

; Function Attrs: mustprogress uwtable
define void @_ZN7rocksdb11WriteThread14EnterUnbatchedEPNS0_6WriterEPNS_17InstrumentedMutexE(ptr noundef nonnull align 8 dereferenceable(432) %0, ptr noundef %1, ptr noundef %2) #5 align 2 {
  %4 = alloca ptr, align 8
  %5 = alloca ptr, align 8
  %6 = alloca ptr, align 8
  %7 = alloca i8, align 1
  store ptr %0, ptr %4, align 8, !tbaa !48
  store ptr %1, ptr %5, align 8, !tbaa !152
  store ptr %2, ptr %6, align 8, !tbaa !291
  %8 = load ptr, ptr %4, align 8
  %9 = load ptr, ptr %6, align 8, !tbaa !291
  call void @_ZN7rocksdb17InstrumentedMutex6UnlockEv(ptr noundef nonnull align 8 dereferenceable(60) %9)
  call void @llvm.lifetime.start.p0(i64 1, ptr %7) #4
  %10 = load ptr, ptr %5, align 8, !tbaa !152
  %11 = getelementptr inbounds nuw %"class.rocksdb::WriteThread", ptr %8, i32 0, i32 6
  %12 = call noundef zeroext i1 @_ZN7rocksdb11WriteThread7LinkOneEPNS0_6WriterEPSt6atomicIS2_E(ptr noundef nonnull align 8 dereferenceable(432) %8, ptr noundef %10, ptr noundef %11)
  %13 = zext i1 %12 to i8
  store i8 %13, ptr %7, align 1, !tbaa !147
  %14 = load i8, ptr %7, align 1, !tbaa !147, !range !105, !noundef !106
  %15 = trunc i8 %14 to i1
  br i1 %15, label %19, label %16

16:                                               ; preds = %3
  %17 = load ptr, ptr %5, align 8, !tbaa !152
  %18 = call noundef zeroext i8 @_ZN7rocksdb11WriteThread10AwaitStateEPNS0_6WriterEhPNS0_17AdaptationContextE(ptr noundef nonnull align 8 dereferenceable(432) %8, ptr noundef %17, i8 noundef zeroext 2, ptr noundef @_ZN7rocksdbL6eu_ctxE)
  br label %19

19:                                               ; preds = %16, %3
  %20 = getelementptr inbounds nuw %"class.rocksdb::WriteThread", ptr %8, i32 0, i32 4
  %21 = load i8, ptr %20, align 1, !tbaa !143, !range !105, !noundef !106
  %22 = trunc i8 %21 to i1
  br i1 %22, label %23, label %24

23:                                               ; preds = %19
  call void @_ZN7rocksdb11WriteThread22WaitForMemTableWritersEv(ptr noundef nonnull align 8 dereferenceable(432) %8)
  br label %24

24:                                               ; preds = %23, %19
  %25 = load ptr, ptr %6, align 8, !tbaa !291
  call void @_ZN7rocksdb17InstrumentedMutex4LockEv(ptr noundef nonnull align 8 dereferenceable(60) %25)
  call void @llvm.lifetime.end.p0(i64 1, ptr %7) #4
  ret void
}