; Function Attrs: mustprogress uwtable
define void @_ZN7rocksdb11WriteThread14EnterUnbatchedEPNS0_6WriterEPNS_17InstrumentedMutexE(ptr noundef nonnull align 8 dereferenceable(432) %0, ptr noundef %1, ptr noundef nonnull %2) local_unnamed_addr #4 align 2 {
  tail call void @_ZN7rocksdb4port5Mutex6UnlockEv(ptr noundef nonnull align 8 dereferenceable(60) %2)
  %4 = getelementptr inbounds nuw i8, ptr %0, i64 40
  %5 = tail call noundef zeroext i1 @_ZN7rocksdb11WriteThread7LinkOneEPNS0_6WriterEPSt6atomicIS2_E(ptr noundef nonnull align 8 dereferenceable(432) %0, ptr noundef %1, ptr noundef nonnull %4)
  br i1 %5, label %8, label %6

6:                                                ; preds = %3
  %7 = tail call noundef zeroext i8 @_ZN7rocksdb11WriteThread10AwaitStateEPNS0_6WriterEhPNS0_17AdaptationContextE(ptr noundef nonnull align 8 dereferenceable(432) %0, ptr noundef %1, i8 noundef zeroext 2, ptr noundef nonnull @_ZN7rocksdbL6eu_ctxE)
  br label %8

8:                                                ; preds = %6, %3
  %9 = getelementptr inbounds nuw i8, ptr %0, i64 25
  %10 = load i8, ptr %9, align 1, !tbaa !109, !range !72, !noundef !73
  %11 = trunc nuw i8 %10 to i1
  br i1 %11, label %12, label %13

12:                                               ; preds = %8
  tail call void @_ZN7rocksdb11WriteThread22WaitForMemTableWritersEv(ptr noundef nonnull align 8 dereferenceable(432) %0)
  br label %13

13:                                               ; preds = %12, %8
  tail call void @_ZN7rocksdb17InstrumentedMutex4LockEv(ptr noundef nonnull align 8 dereferenceable(60) %2)
  ret void
}